(dp1
S'OriginalConfig'
p2
ccopy_reg
_reconstructor
p3
(cWMCore.Configuration
Configuration
p4
c__builtin__
object
p5
NtRp6
(dp7
S'Site'
p8
g3
(cWMCore.Configuration
ConfigSection
p9
g5
NtRp10
(dp11
S'_internal_skipChecks'
p12
I00
sS'_internal_documentation'
p13
S''
sS'_internal_settings'
p14
c__builtin__
set
p15
((lp16
S'storageSite'
p17
atRp18
sS'_internal_name'
p19
g8
sS'_internal_docstrings'
p20
(dp21
sS'_internal_children'
p22
g15
((ltRp23
sg17
S'T2_CH_CERN'
p24
sS'_internal_parent_ref'
p25
NsbsS'_internal_sections'
p26
(lp27
S'General'
p28
aS'JobType'
p29
aS'Data'
p30
ag8
aS'User'
p31
aS'Debug'
p32
asg28
g3
(g9
g5
NtRp33
(dp34
S'transferLogs'
p35
I01
sg12
I00
sg13
S''
sg14
g15
((lp36
g35
aS'transferOutputs'
p37
aS'workArea'
p38
aS'requestName'
p39
atRp40
sg19
g28
sg20
(dp41
sg37
I01
sg22
g15
((ltRp42
sg39
S'Ups3S_tuneD6T_5TeV02'
p43
sg25
Nsg38
S'crab_projects'
p44
sbsS'_internal_webapps'
p45
(lp46
sg31
g3
(g9
g5
NtRp47
(dp48
g12
I00
sg13
S''
sg14
g15
((ltRp49
sg19
g31
sg20
(dp50
sg22
g15
((ltRp51
sg25
NsbsS'_internal_components'
p52
(lp53
sg32
g3
(g9
g5
NtRp54
(dp55
g12
I00
sg13
S''
sg14
g15
((ltRp56
sg19
g32
sg20
(dp57
sg22
g15
((ltRp58
sg25
Nsbsg30
g3
(g9
g5
NtRp59
(dp60
S'inputDataset'
p61
S'/PYTHIA6_Upsilon3S_tuneD6T_5TeV02/HiWinter13-pa_STARTHI53_V27-v1/GEN-SIM-RECO'
p62
sS'outputDatasetTag'
p63
g43
sg12
I00
sS'splitting'
p64
S'FileBased'
p65
sS'unitsPerJob'
p66
I1
sg13
S''
sg14
g15
((lp67
g61
ag63
aS'publication'
p68
ag66
aS'inputDBS'
p69
ag64
aS'outLFNDirBase'
p70
atRp71
sg19
g30
sg69
S'global'
p72
sg20
(dp73
sg22
g15
((ltRp74
sg70
S'/store/group/phys_heavyions/stuli/MCpPb5TeV02'
p75
sg25
Nsg68
I01
sbsg29
g3
(g9
g5
NtRp76
(dp77
S'outputFiles'
p78
(lp79
S'Upsilon3S_pa_1st_run_SKIM_STARTHI53_V27-v1.root'
p80
asg12
I00
sg13
S''
sg14
g15
((lp81
S'psetName'
p82
aS'pluginName'
p83
ag78
atRp84
sg19
g29
sg20
(dp85
sg83
S'Analysis'
p86
sg22
g15
((ltRp87
sg82
S'SkimUps3S_tuneD6T_5TeV02.py'
p88
sg25
NsbsbsS'voGroup'
p89
S''
sS'Server'
p90
S'cmsweb.cern.ch'
p91
sS'instance'
p92
S'prod'
p93
sS'RequestName'
p94
V170815_222027:stuli_crab_Ups3S_tuneD6T_5TeV02
p95
sS'voRole'
p96
S'NULL'
p97
sS'Port'
p98
S''
s.