ccopy_reg
_reconstructor
p0
(cFWCore.ParameterSet.Config
Process
p1
c__builtin__
object
p2
Ntp3
Rp4
(dp5
S'MessageLogger'
p6
g0
(cFWCore.ParameterSet.Modules
Service
p7
g2
Ntp8
Rp9
(dp10
S'_isFrozen'
p11
I00
sS'suppressInfo'
p12
g0
(cFWCore.ParameterSet.Types
vstring
p13
c__builtin__
list
p14
(lp15
tp16
Rp17
(dp18
g11
I00
sS'_ParameterTypeBase__isTracked'
p19
I00
sS'_isModified'
p20
I00
sS'_nPerLine'
p21
I1
sbsS'suppressDebug'
p22
g0
(g13
g14
(lp23
tp24
Rp25
(dp26
g11
I00
sg19
I00
sg20
I00
sg21
I1
sbsS'cout'
p27
g0
(cFWCore.ParameterSet.Types
PSet
p28
g2
Ntp29
Rp30
(dp31
g11
I00
sg19
I00
sS'placeholder'
p32
g0
(cFWCore.ParameterSet.Types
bool
p33
g2
Ntp34
Rp35
(dp36
g11
I00
sg19
I00
sS'_value'
p37
I01
sg20
I00
sbsg20
I00
sS'_Parameterizable__parameterNames'
p38
(lp39
g32
asbsS'_lineNumber'
p40
I10
sS'debugModules'
p41
g0
(g13
g14
(lp42
tp43
Rp44
(dp45
g11
I00
sg19
I00
sg20
I00
sg21
I1
sbsS'_TypedParameterizable__type'
p46
g6
sS'fwkJobReports'
p47
g0
(g13
g14
(lp48
S'FrameworkJobReport'
p49
atp50
Rp51
(dp52
g11
I00
sg19
I00
sg20
I00
sg21
I1
sbsg38
(lp53
g12
aS'debugs'
p54
ag22
ag27
aS'cerr_stats'
p55
aS'warnings'
p56
aS'default'
p57
aS'statistics'
p58
aS'cerr'
p59
ag49
aS'suppressWarning'
p60
aS'errors'
p61
aS'destinations'
p62
ag41
aS'infos'
p63
aS'categories'
p64
ag47
asg58
g0
(g13
g14
(lp65
g55
atp66
Rp67
(dp68
g11
I00
sg19
I00
sg20
I00
sg21
I1
sbsS'_filename'
p69
S'/cvmfs/cms.cern.ch/slc6_amd64_gcc472/cms/cmssw/CMSSW_5_3_27/python/FWCore/ParameterSet/Modules.py'
p70
sg62
g0
(g13
g14
(lp71
g27
ag59
atp72
Rp73
(dp74
g11
I00
sg19
I00
sg20
I01
sg21
I1
sbsg54
g0
(g28
g2
Ntp75
Rp76
(dp77
g11
I00
sg19
I00
sg32
g0
(g33
g2
Ntp78
Rp79
(dp80
g11
I00
sg19
I00
sg37
I01
sg20
I00
sbsg20
I00
sg38
(lp81
g32
asbsg56
g0
(g28
g2
Ntp82
Rp83
(dp84
g11
I00
sg19
I00
sg32
g0
(g33
g2
Ntp85
Rp86
(dp87
g11
I00
sg19
I00
sg37
I01
sg20
I00
sbsg20
I00
sg38
(lp88
g32
asbsg61
g0
(g28
g2
Ntp89
Rp90
(dp91
g11
I00
sg19
I00
sg32
g0
(g33
g2
Ntp92
Rp93
(dp94
g11
I00
sg19
I00
sg37
I01
sg20
I00
sbsg20
I00
sg38
(lp95
g32
asbsg49
g0
(g28
g2
Ntp96
Rp97
(dp98
g11
I00
sg19
I00
sg20
I00
sg57
g0
(g28
g2
Ntp99
Rp100
(dp101
g11
I00
sg19
I00
sS'limit'
p102
g0
(cFWCore.ParameterSet.Types
int32
p103
g2
Ntp104
Rp105
(dp106
g11
I00
sg19
I00
sg37
I0
sg20
I00
sbsg20
I00
sg38
(lp107
g102
asbsS'FwkJob'
p108
g0
(g28
g2
Ntp109
Rp110
(dp111
g11
I00
sg19
I00
sg20
I00
sg102
g0
(g103
g2
Ntp112
Rp113
(dp114
g11
I00
sg19
I00
sg37
I10000000
sg20
I00
sbsg38
(lp115
S'optionalPSet'
p116
ag102
asg116
g0
(g33
g2
Ntp117
Rp118
(dp119
g11
I00
sg19
I00
sg37
I01
sg20
I00
sbsbsg38
(lp120
g57
ag116
ag108
asg116
g0
(g33
g2
Ntp121
Rp122
(dp123
g11
I00
sg19
I00
sg37
I01
sg20
I00
sbsbsg60
g0
(g13
g14
(lp124
tp125
Rp126
(dp127
g11
I00
sg19
I00
sg20
I00
sg21
I1
sbsg63
g0
(g28
g2
Ntp128
Rp129
(dp130
g11
I00
sg19
I00
sg20
I00
sS'Root_NoDictionary'
p131
g0
(g28
g2
Ntp132
Rp133
(dp134
g11
I00
sg19
I00
sg20
I00
sg102
g0
(g103
g2
Ntp135
Rp136
(dp137
g11
I00
sg19
I00
sg37
I0
sg20
I00
sbsg38
(lp138
g116
ag102
asg116
g0
(g33
g2
Ntp139
Rp140
(dp141
g11
I00
sg19
I00
sg37
I01
sg20
I00
sbsbsg38
(lp142
g116
ag131
ag32
asg116
g0
(g33
g2
Ntp143
Rp144
(dp145
g11
I00
sg19
I00
sg37
I01
sg20
I00
sbsg32
g0
(g33
g2
Ntp146
Rp147
(dp148
g11
I00
sg19
I00
sg37
I01
sg20
I00
sbsbsg64
g0
(g13
g14
(lp149
g108
aS'FwkReport'
p150
aS'FwkSummary'
p151
ag131
atp152
Rp153
(dp154
g11
I00
sg19
I00
sg20
I00
sg21
I1
sbsg20
I01
sg55
g0
(g28
g2
Ntp155
Rp156
(dp157
g11
I00
sg19
I00
sg20
I00
sg116
g0
(g33
g2
Ntp158
Rp159
(dp160
g11
I00
sg19
I00
sg37
I01
sg20
I00
sbsg38
(lp161
S'threshold'
p162
aS'output'
p163
ag116
asg162
g0
(cFWCore.ParameterSet.Types
string
p164
g2
Ntp165
Rp166
(dp167
g11
I00
sg19
I00
sg37
S'WARNING'
p168
sg20
I00
sbsg163
g0
(g164
g2
Ntp169
Rp170
(dp171
g11
I00
sg19
I00
sg37
g59
sg20
I00
sbsbsg57
g0
(g28
g2
Ntp172
Rp173
(dp174
g11
I00
sg19
I00
sg20
I00
sg38
(lp175
sbsg59
g0
(g28
g2
Ntp176
Rp177
(dp178
g11
I00
sg19
I00
sS'noTimeStamps'
p179
g0
(g33
g2
Ntp180
Rp181
(dp182
g11
I00
sg19
I00
sg37
I00
sg20
I00
sbsg150
g0
(g28
g2
Ntp183
Rp184
(dp185
g11
I00
sg19
I00
sg20
I01
sS'reportEvery'
p186
g0
(g103
g2
Ntp187
Rp188
(dp189
g11
I00
sg19
I00
sg37
I100
sg20
I01
sbsg102
g0
(g103
g2
Ntp190
Rp191
(dp192
g11
I00
sg19
I00
sg37
I10000000
sg20
I00
sbsg38
(lp193
g186
ag116
ag102
asg116
g0
(g33
g2
Ntp194
Rp195
(dp196
g11
I00
sg19
I00
sg37
I01
sg20
I00
sbsbsg20
I00
sg57
g0
(g28
g2
Ntp197
Rp198
(dp199
g11
I00
sg19
I00
sg102
g0
(g103
g2
Ntp200
Rp201
(dp202
g11
I00
sg19
I00
sg37
I10000000
sg20
I00
sbsg20
I00
sg38
(lp203
g102
asbsg131
g0
(g28
g2
Ntp204
Rp205
(dp206
g11
I00
sg19
I00
sg20
I00
sg102
g0
(g103
g2
Ntp207
Rp208
(dp209
g11
I00
sg19
I00
sg37
I0
sg20
I00
sbsg38
(lp210
g116
ag102
asg116
g0
(g33
g2
Ntp211
Rp212
(dp213
g11
I00
sg19
I00
sg37
I01
sg20
I00
sbsbsS'INFO'
p214
g0
(g28
g2
Ntp215
Rp216
(dp217
g11
I00
sg19
I00
sg102
g0
(g103
g2
Ntp218
Rp219
(dp220
g11
I00
sg19
I00
sg37
I0
sg20
I00
sbsg20
I00
sg38
(lp221
g102
asbsg116
g0
(g33
g2
Ntp222
Rp223
(dp224
g11
I00
sg19
I00
sg37
I01
sg20
I00
sbsg108
g0
(g28
g2
Ntp225
Rp226
(dp227
g11
I00
sg19
I00
sg20
I00
sg102
g0
(g103
g2
Ntp228
Rp229
(dp230
g11
I00
sg19
I00
sg37
I0
sg20
I00
sbsg38
(lp231
g116
ag102
asg116
g0
(g33
g2
Ntp232
Rp233
(dp234
g11
I00
sg19
I00
sg37
I01
sg20
I00
sbsbsg151
g0
(g28
g2
Ntp235
Rp236
(dp237
g11
I00
sg19
I00
sg20
I00
sg186
g0
(g103
g2
Ntp238
Rp239
(dp240
g11
I00
sg19
I00
sg37
I1
sg20
I00
sbsg102
g0
(g103
g2
Ntp241
Rp242
(dp243
g11
I00
sg19
I00
sg37
I10000000
sg20
I00
sbsg38
(lp244
g186
ag116
ag102
asg116
g0
(g33
g2
Ntp245
Rp246
(dp247
g11
I00
sg19
I00
sg37
I01
sg20
I00
sbsbsg38
(lp248
g214
ag179
ag150
ag57
ag131
ag162
ag108
ag151
ag116
asg162
g0
(g164
g2
Ntp249
Rp250
(dp251
g11
I00
sg19
I00
sg37
g214
sg20
I00
sbsbsbsS'hltMu3'
p252
g0
(cFWCore.ParameterSet.Modules
EDFilter
p253
g2
Ntp254
Rp255
(dp256
g38
(lp257
S'eventSetupPathsKey'
p258
aS'TriggerResultsTag'
p259
aS'HLTPaths'
p260
aS'throw'
p261
aS'andOr'
p262
asg11
I00
sg262
g0
(g33
g2
Ntp263
Rp264
(dp265
g11
I00
sg19
I01
sg37
I01
sg20
I00
sbsg260
g0
(g13
g14
(lp266
S'HLT_PAMu3_v*'
p267
atp268
Rp269
(dp270
g11
I00
sg19
I01
sg20
I00
sg21
I1
sbsg20
I00
sg40
I80
sg69
S'/afs/cern.ch/work/s/stuli/public/OniaSkim2013/OniaSkimCode_Santona/CMSSW_5_3_27/src/OniaTree/hioniaanalyzer3S_cfg.py'
p271
sS'_Labelable__label'
p272
g252
sg258
g0
(g164
g2
Ntp273
Rp274
(dp275
g11
I00
sg19
I01
sg37
S''
p276
sg20
I00
sbsg261
g0
(g33
g2
Ntp277
Rp278
(dp279
g11
I00
sg19
I01
sg37
I00
sg20
I00
sbsg46
S'HLTHighLevel'
p280
sg259
g0
(cFWCore.ParameterSet.Types
InputTag
p281
g2
Ntp282
Rp283
(dp284
g11
I00
sg19
I01
sg20
I00
sS'_InputTag__moduleLabel'
p285
S'TriggerResults'
p286
sS'_InputTag__processName'
p287
S'HLT'
p288
sS'_InputTag__productInstance'
p289
g276
sbsbsS'_Process__sequences'
p290
(dp291
sS'CondDBSetup'
p292
g0
(g28
g2
Ntp293
Rp294
(dp295
g11
I00
sg19
I01
sg20
I00
sS'DBParameters'
p296
g0
(g28
g2
Ntp297
Rp298
(dp299
g11
I00
sg19
I01
sS'connectionRetrialPeriod'
p300
g0
(g103
g2
Ntp301
Rp302
(dp303
g11
I00
sg19
I00
sg37
I10
sg20
I00
sbsS'authenticationPath'
p304
g0
(g164
g2
Ntp305
Rp306
(dp307
g11
I00
sg19
I00
sg37
g276
sg20
I00
sbsg20
I00
sS'idleConnectionCleanupPeriod'
p308
g0
(g103
g2
Ntp309
Rp310
(dp311
g11
I00
sg19
I00
sg37
I10
sg20
I00
sbsS'messageLevel'
p312
g0
(g103
g2
Ntp313
Rp314
(dp315
g11
I00
sg19
I00
sg37
I0
sg20
I00
sbsS'enablePoolAutomaticCleanUp'
p316
g0
(g33
g2
Ntp317
Rp318
(dp319
g11
I00
sg19
I00
sg37
I00
sg20
I00
sbsS'enableConnectionSharing'
p320
g0
(g33
g2
Ntp321
Rp322
(dp323
g11
I00
sg19
I00
sg37
I01
sg20
I00
sbsS'enableReadOnlySessionOnUpdateConnection'
p324
g0
(g33
g2
Ntp325
Rp326
(dp327
g11
I00
sg19
I00
sg37
I00
sg20
I00
sbsg38
(lp328
g304
ag324
ag308
ag312
ag316
ag320
aS'connectionRetrialTimeOut'
p329
aS'connectionTimeOut'
p330
aS'authenticationSystem'
p331
ag300
asg330
g0
(g103
g2
Ntp332
Rp333
(dp334
g11
I00
sg19
I00
sg37
I60
sg20
I00
sbsg331
g0
(g103
g2
Ntp335
Rp336
(dp337
g11
I00
sg19
I00
sg37
I0
sg20
I00
sbsg329
g0
(g103
g2
Ntp338
Rp339
(dp340
g11
I00
sg19
I00
sg37
I60
sg20
I00
sbsbsg38
(lp341
g296
asg272
g292
sbsS'_Process__services'
p342
(dp343
g6
g9
ssS'siStripQualityESProducer'
p344
g0
(cFWCore.ParameterSet.Modules
ESProducer
p345
g2
Ntp346
Rp347
(dp348
g38
(lp349
S'appendToDataLabel'
p350
aS'PrintDebugOutput'
p351
aS'ThresholdForReducedGranularity'
p352
aS'UseEmptyRunInfo'
p353
aS'ReduceGranularity'
p354
aS'ListOfRecordToMerge'
p355
asg11
I00
sg350
g0
(g164
g2
Ntp356
Rp357
(dp358
g11
I00
sg19
I01
sg37
g276
sg20
I00
sbsg20
I01
sg40
I40
sg69
g70
sg352
g0
(cFWCore.ParameterSet.Types
double
p359
g2
Ntp360
Rp361
(dp362
g11
I00
sg19
I01
sg37
F0.29999999999999999
sg20
I00
sbsg272
g344
sg353
g0
(g33
g2
Ntp363
Rp364
(dp365
g11
I00
sg19
I01
sg37
I00
sg20
I00
sbsg354
g0
(g33
g2
Ntp366
Rp367
(dp368
g11
I00
sg19
I01
sg37
I00
sg20
I00
sbsg355
g0
(cFWCore.ParameterSet.Types
VPSet
p369
g14
(lp370
g0
(g28
g2
Ntp371
Rp372
(dp373
g11
I00
sg19
I01
sg20
I00
sS'record'
p374
g0
(g164
g2
Ntp375
Rp376
(dp377
g11
I00
sg19
I01
sg37
S'SiStripDetVOffRcd'
p378
sg20
I00
sbsS'tag'
p379
g0
(g164
g2
Ntp380
Rp381
(dp382
g11
I00
sg19
I01
sg37
g276
sg20
I00
sbsg38
(lp383
g374
ag379
asbag0
(g28
g2
Ntp384
Rp385
(dp386
g11
I00
sg19
I01
sg20
I00
sg374
g0
(g164
g2
Ntp387
Rp388
(dp389
g11
I00
sg19
I01
sg37
S'SiStripDetCablingRcd'
p390
sg20
I00
sbsg379
g0
(g164
g2
Ntp391
Rp392
(dp393
g11
I00
sg19
I01
sg37
g276
sg20
I00
sbsg38
(lp394
g374
ag379
asbag0
(g28
g2
Ntp395
Rp396
(dp397
g11
I00
sg19
I01
sg20
I00
sg374
g0
(g164
g2
Ntp398
Rp399
(dp400
g11
I00
sg19
I01
sg37
S'RunInfoRcd'
p401
sg20
I00
sbsg379
g0
(g164
g2
Ntp402
Rp403
(dp404
g11
I00
sg19
I01
sg37
g276
sg20
I00
sbsg38
(lp405
g374
ag379
asbag0
(g28
g2
Ntp406
Rp407
(dp408
g11
I00
sg19
I01
sg20
I00
sg374
g0
(g164
g2
Ntp409
Rp410
(dp411
g11
I00
sg19
I01
sg37
S'SiStripBadChannelRcd'
p412
sg20
I00
sbsg379
g0
(g164
g2
Ntp413
Rp414
(dp415
g11
I00
sg19
I01
sg37
g276
sg20
I00
sbsg38
(lp416
g374
ag379
asbag0
(g28
g2
Ntp417
Rp418
(dp419
g11
I00
sg19
I01
sg20
I00
sg374
g0
(g164
g2
Ntp420
Rp421
(dp422
g11
I00
sg19
I01
sg37
S'SiStripBadFiberRcd'
p423
sg20
I00
sbsg379
g0
(g164
g2
Ntp424
Rp425
(dp426
g11
I00
sg19
I01
sg37
g276
sg20
I00
sbsg38
(lp427
g374
ag379
asbag0
(g28
g2
Ntp428
Rp429
(dp430
g11
I00
sg19
I01
sg20
I00
sg374
g0
(g164
g2
Ntp431
Rp432
(dp433
g11
I00
sg19
I01
sg37
S'SiStripBadModuleRcd'
p434
sg20
I00
sbsg379
g0
(g164
g2
Ntp435
Rp436
(dp437
g11
I00
sg19
I01
sg37
g276
sg20
I00
sbsg38
(lp438
g374
ag379
asbag0
(g28
g2
Ntp439
Rp440
(dp441
g11
I00
sg19
I01
sg20
I00
sg374
g0
(g164
g2
Ntp442
Rp443
(dp444
g11
I00
sg19
I01
sg37
S'SiStripBadStripRcd'
p445
sg20
I00
sbsg379
g0
(g164
g2
Ntp446
Rp447
(dp448
g11
I00
sg19
I01
sg37
g276
sg20
I00
sbsg38
(lp449
g374
ag379
asbatp450
Rp451
(dp452
g11
I00
sg19
I01
sg20
I00
sg21
I1
sbsg46
S'SiStripQualityESProducer'
p453
sg351
g0
(g33
g2
Ntp454
Rp455
(dp456
g11
I00
sg19
I01
sg37
I00
sg20
I00
sbsbsS'_Process__source'
p457
g0
(cFWCore.ParameterSet.Modules
Source
p458
g2
Ntp459
Rp460
(dp461
g38
(lp462
S'fileNames'
p463
asg11
I00
sg20
I00
sg40
I175
sg69
g70
sg463
g0
(g13
g14
(lp464
S'root://cms-xrd-global.cern.ch//store/group/phys_heavyions/stuli/MCpPb5TeV02/PYTHIA6_Upsilon3S_tuneD6T_5TeV02/Ups3S_tuneD6T_5TeV02/170815_222027/0000/Upsilon3S_pa_1st_run_SKIM_STARTHI53_V27-v1_102.root'
p465
atp466
Rp467
(dp468
g11
I00
sg19
I00
sg20
I00
sg21
I1
sbsg46
S'PoolSource'
p469
sbsS'StripCPEfromTrackAngleESProducer'
p470
g0
(g345
g2
Ntp471
Rp472
(dp473
g38
(lp474
S'ComponentName'
p475
asg11
I00
sg20
I00
sg40
I40
sg69
g70
sg475
g0
(g164
g2
Ntp476
Rp477
(dp478
g11
I00
sg19
I01
sg37
S'StripCPEfromTrackAngle'
p479
sg20
I00
sbsg272
g470
sg46
S'StripCPEESProducer'
p480
sbsS'hltMult100DblMu3'
p481
g0
(g253
g2
Ntp482
Rp483
(dp484
g38
(lp485
g258
ag259
ag260
ag261
ag262
asg11
I00
sg262
g0
(g33
g2
Ntp486
Rp487
(dp488
g11
I00
sg19
I01
sg37
I01
sg20
I00
sbsg260
g0
(g13
g14
(lp489
S'HLT_PAPixelTrackMultiplicity100_L2DoubleMu3_v*'
p490
atp491
Rp492
(dp493
g11
I00
sg19
I01
sg20
I00
sg21
I1
sbsg20
I00
sg40
I104
sg69
g271
sg272
g481
sg258
g0
(g164
g2
Ntp494
Rp495
(dp496
g11
I00
sg19
I01
sg37
g276
sg20
I00
sbsg261
g0
(g33
g2
Ntp497
Rp498
(dp499
g11
I00
sg19
I01
sg37
I00
sg20
I00
sbsg46
g280
sg259
g0
(g281
g2
Ntp500
Rp501
(dp502
g11
I00
sg19
I01
sg20
I00
sg285
g286
sg287
g288
sg289
g276
sbsbsS'hltMu7'
p503
g0
(g253
g2
Ntp504
Rp505
(dp506
g38
(lp507
g258
ag259
ag260
ag261
ag262
asg11
I00
sg262
g0
(g33
g2
Ntp508
Rp509
(dp510
g11
I00
sg19
I01
sg37
I01
sg20
I00
sbsg260
g0
(g13
g14
(lp511
S'HLT_PAMu7_v*'
p512
atp513
Rp514
(dp515
g11
I00
sg19
I01
sg20
I00
sg21
I1
sbsg20
I00
sg40
I88
sg69
g271
sg272
g503
sg258
g0
(g164
g2
Ntp516
Rp517
(dp518
g11
I00
sg19
I01
sg37
g276
sg20
I00
sbsg261
g0
(g33
g2
Ntp519
Rp520
(dp521
g11
I00
sg19
I01
sg37
I00
sg20
I00
sbsg46
g280
sg259
g0
(g281
g2
Ntp522
Rp523
(dp524
g11
I00
sg19
I01
sg20
I00
sg285
g286
sg287
g288
sg289
g276
sbsbsS'EcalLaserCorrectionService'
p525
g0
(g345
g2
Ntp526
Rp527
(dp528
g38
(lp529
sg11
I00
sg20
I00
sg40
I40
sg69
g70
sg272
g525
sg46
g525
sbsS'_Process__psets'
p530
(dp531
S'maxEvents'
p532
g0
(g28
g2
Ntp533
Rp534
(dp535
g11
I00
sg19
I00
sg20
I00
sg38
(lp536
S'input'
p537
asg272
g532
sg537
g0
(g103
g2
Ntp538
Rp539
(dp540
g11
I00
sg19
I00
sg37
I-1
sg20
I00
sbsbsS'HeavyIonGlobalParameters'
p541
g0
(g28
g2
Ntp542
Rp543
(dp544
g11
I00
sg19
I01
sS'centralityVariable'
p545
g0
(g164
g2
Ntp546
Rp547
(dp548
g11
I00
sg19
I01
sg37
S'HFtowersPlusTrunc'
p549
sg20
I00
sbsg20
I00
sS'pPbRunFlip'
p550
g0
(cFWCore.ParameterSet.Types
uint32
p551
g2
Ntp552
Rp553
(dp554
g11
I00
sg19
I00
sg37
I211313
sg20
I00
sbsg38
(lp555
g545
aS'centralitySrc'
p556
ag550
aS'nonDefaultGlauberModel'
p557
asg272
g541
sg556
g0
(g281
g2
Ntp558
Rp559
(dp560
g11
I00
sg19
I01
sg20
I00
sg285
S'pACentrality'
p561
sg287
g276
sg289
g276
sbsg557
g0
(g164
g2
Ntp562
Rp563
(dp564
g11
I00
sg19
I01
sg37
g276
sg20
I00
sbsbsS'options'
p565
g0
(g28
g2
Ntp566
Rp567
(dp568
g11
I00
sg19
I00
sg20
I00
sS'SkipEvent'
p569
g0
(g13
g14
(lp570
S'ProductNotFound'
p571
atp572
Rp573
(dp574
g11
I00
sg19
I00
sg20
I00
sg21
I1
sbsg38
(lp575
g569
asg272
g565
sbsg292
g294
ssS'hcal_db_producer'
p576
g0
(g345
g2
Ntp577
Rp578
(dp579
g38
(lp580
S'file'
p581
aS'dump'
p582
asg11
I00
sg20
I00
sg582
g0
(g13
g14
(lp583
g276
atp584
Rp585
(dp586
g11
I00
sg19
I00
sg20
I00
sg21
I1
sbsg40
I40
sg69
g70
sg581
g0
(g164
g2
Ntp587
Rp588
(dp589
g11
I00
sg19
I00
sg37
g276
sg20
I00
sbsg272
g576
sg46
S'HcalDbProducer'
p590
sbsS'_Process__essources'
p591
(dp592
S'es_hardcode'
p593
g0
(cFWCore.ParameterSet.Modules
ESSource
p594
g2
Ntp595
Rp596
(dp597
g38
(lp598
S'toGet'
p599
asg11
I00
sg20
I00
sg40
I9
sg69
S'/cvmfs/cms.cern.ch/slc6_amd64_gcc472/cms/cmssw/CMSSW_5_3_27/python/CalibCalorimetry/HcalPlugins/Hcal_Conditions_forGlobalTag_cff.py'
p600
sg599
g0
(g13
g14
(lp601
S'GainWidths'
p602
atp603
Rp604
(dp605
g11
I00
sg19
I00
sg20
I00
sg21
I1
sbsg272
g593
sg46
S'HcalHardcodeCalibrations'
p606
sbsS'GlobalTag'
p607
g0
(g594
g2
Ntp608
Rp609
(dp610
g38
(lp611
g296
aS'BlobStreamerName'
p612
ag599
aS'connect'
p613
aS'globaltag'
p614
asg11
I00
sg20
I01
sg614
g0
(g164
g2
Ntp615
Rp616
(dp617
g11
I00
sg19
I01
sg37
S'STARTHI53_V27::All'
p618
sg20
I01
sbsg40
I10
sg69
S'/cvmfs/cms.cern.ch/slc6_amd64_gcc472/cms/cmssw/CMSSW_5_3_27/python/Configuration/StandardSequences/FrontierConditions_GlobalTag_cfi.py'
p619
sg599
g0
(g369
g14
(lp620
g0
(g28
g2
Ntp621
Rp622
(dp623
g11
I00
sg19
I01
sg20
I00
sS'label'
p624
g0
(g164
g2
Ntp625
Rp626
(dp627
g11
I00
sg19
I00
sg37
S'HFhitsAMPT_Organ'
p628
sg20
I00
sbsg374
g0
(g164
g2
Ntp629
Rp630
(dp631
g11
I00
sg19
I01
sg37
S'HeavyIonRcd'
p632
sg20
I00
sbsg379
g0
(g164
g2
Ntp633
Rp634
(dp635
g11
I00
sg19
I01
sg37
S'CentralityTable_HFhits40_AMPTOrgan_v0_offline'
p636
sg20
I00
sbsg613
g0
(g164
g2
Ntp637
Rp638
(dp639
g11
I00
sg19
I00
sg37
S'frontier://FrontierProd/CMS_COND_31X_PHYSICSTOOLS'
p640
sg20
I00
sbsg38
(lp641
g374
ag379
ag613
ag624
asbag0
(g28
g2
Ntp642
Rp643
(dp644
g11
I00
sg19
I01
sg20
I00
sg624
g0
(g164
g2
Ntp645
Rp646
(dp647
g11
I00
sg19
I00
sg37
S'PixelHitsAMPT_Organ'
p648
sg20
I00
sbsg374
g0
(g164
g2
Ntp649
Rp650
(dp651
g11
I00
sg19
I01
sg37
g632
sg20
I00
sbsg379
g0
(g164
g2
Ntp652
Rp653
(dp654
g11
I00
sg19
I01
sg37
S'CentralityTable_PixelHits40_AMPTOrgan_v0_offline'
p655
sg20
I00
sbsg613
g0
(g164
g2
Ntp656
Rp657
(dp658
g11
I00
sg19
I00
sg37
g640
sg20
I00
sbsg38
(lp659
g374
ag379
ag613
ag624
asbag0
(g28
g2
Ntp660
Rp661
(dp662
g11
I00
sg19
I01
sg20
I00
sg624
g0
(g164
g2
Ntp663
Rp664
(dp665
g11
I00
sg19
I00
sg37
S'HFhitsHydjet_Bass'
p666
sg20
I00
sbsg374
g0
(g164
g2
Ntp667
Rp668
(dp669
g11
I00
sg19
I01
sg37
g632
sg20
I00
sbsg379
g0
(g164
g2
Ntp670
Rp671
(dp672
g11
I00
sg19
I01
sg37
S'CentralityTable_HFhits40_HydjetBass_vv44x04_mc'
p673
sg20
I00
sbsg613
g0
(g164
g2
Ntp674
Rp675
(dp676
g11
I00
sg19
I00
sg37
g640
sg20
I00
sbsg38
(lp677
g374
ag379
ag613
ag624
asbag0
(g28
g2
Ntp678
Rp679
(dp680
g11
I00
sg19
I01
sg20
I00
sg624
g0
(g164
g2
Ntp681
Rp682
(dp683
g11
I00
sg19
I00
sg37
S'PixelHitsHydjet_Bass'
p684
sg20
I00
sbsg374
g0
(g164
g2
Ntp685
Rp686
(dp687
g11
I00
sg19
I01
sg37
g632
sg20
I00
sbsg379
g0
(g164
g2
Ntp688
Rp689
(dp690
g11
I00
sg19
I01
sg37
S'CentralityTable_PixelHits40_HydjetBass_vv44x04_mc'
p691
sg20
I00
sbsg613
g0
(g164
g2
Ntp692
Rp693
(dp694
g11
I00
sg19
I00
sg37
g640
sg20
I00
sbsg38
(lp695
g374
ag379
ag613
ag624
asbag0
(g28
g2
Ntp696
Rp697
(dp698
g11
I00
sg19
I01
sg20
I00
sg624
g0
(g164
g2
Ntp699
Rp700
(dp701
g11
I00
sg19
I00
sg37
S'TracksHydjet_Bass'
p702
sg20
I00
sbsg374
g0
(g164
g2
Ntp703
Rp704
(dp705
g11
I00
sg19
I01
sg37
g632
sg20
I00
sbsg379
g0
(g164
g2
Ntp706
Rp707
(dp708
g11
I00
sg19
I01
sg37
S'CentralityTable_Tracks40_HydjetBass_vv44x04_mc'
p709
sg20
I00
sbsg613
g0
(g164
g2
Ntp710
Rp711
(dp712
g11
I00
sg19
I00
sg37
g640
sg20
I00
sbsg38
(lp713
g374
ag379
ag613
ag624
asbag0
(g28
g2
Ntp714
Rp715
(dp716
g11
I00
sg19
I01
sg20
I00
sg624
g0
(g164
g2
Ntp717
Rp718
(dp719
g11
I00
sg19
I00
sg37
S'PixelTracksHydjet_Bass'
p720
sg20
I00
sbsg374
g0
(g164
g2
Ntp721
Rp722
(dp723
g11
I00
sg19
I01
sg37
g632
sg20
I00
sbsg379
g0
(g164
g2
Ntp724
Rp725
(dp726
g11
I00
sg19
I01
sg37
S'CentralityTable_PixelTracks40_HydjetBass_vv44x04_mc'
p727
sg20
I00
sbsg613
g0
(g164
g2
Ntp728
Rp729
(dp730
g11
I00
sg19
I00
sg37
g640
sg20
I00
sbsg38
(lp731
g374
ag379
ag613
ag624
asbag0
(g28
g2
Ntp732
Rp733
(dp734
g11
I00
sg19
I01
sg20
I00
sg624
g0
(g164
g2
Ntp735
Rp736
(dp737
g11
I00
sg19
I00
sg37
S'HFtowersHydjet_Bass'
p738
sg20
I00
sbsg374
g0
(g164
g2
Ntp739
Rp740
(dp741
g11
I00
sg19
I01
sg37
g632
sg20
I00
sbsg379
g0
(g164
g2
Ntp742
Rp743
(dp744
g11
I00
sg19
I01
sg37
S'CentralityTable_HFtowers40_HydjetBass_vv44x04_mc'
p745
sg20
I00
sbsg613
g0
(g164
g2
Ntp746
Rp747
(dp748
g11
I00
sg19
I00
sg37
g640
sg20
I00
sbsg38
(lp749
g374
ag379
ag613
ag624
asbag0
(g28
g2
Ntp750
Rp751
(dp752
g11
I00
sg19
I01
sg20
I00
sg624
g0
(g164
g2
Ntp753
Rp754
(dp755
g11
I00
sg19
I00
sg37
S'HFhitsHydjet_Drum'
p756
sg20
I00
sbsg374
g0
(g164
g2
Ntp757
Rp758
(dp759
g11
I00
sg19
I01
sg37
g632
sg20
I00
sbsg379
g0
(g164
g2
Ntp760
Rp761
(dp762
g11
I00
sg19
I01
sg37
S'CentralityTable_HFhits40_HydjetDrum_vv44x05_mc'
p763
sg20
I00
sbsg613
g0
(g164
g2
Ntp764
Rp765
(dp766
g11
I00
sg19
I00
sg37
g640
sg20
I00
sbsg38
(lp767
g374
ag379
ag613
ag624
asbag0
(g28
g2
Ntp768
Rp769
(dp770
g11
I00
sg19
I01
sg20
I00
sg624
g0
(g164
g2
Ntp771
Rp772
(dp773
g11
I00
sg19
I00
sg37
S'PixelHitsHydjet_Drum'
p774
sg20
I00
sbsg374
g0
(g164
g2
Ntp775
Rp776
(dp777
g11
I00
sg19
I01
sg37
g632
sg20
I00
sbsg379
g0
(g164
g2
Ntp778
Rp779
(dp780
g11
I00
sg19
I01
sg37
S'CentralityTable_PixelHits40_HydjetDrum_vv44x05_mc'
p781
sg20
I00
sbsg613
g0
(g164
g2
Ntp782
Rp783
(dp784
g11
I00
sg19
I00
sg37
g640
sg20
I00
sbsg38
(lp785
g374
ag379
ag613
ag624
asbag0
(g28
g2
Ntp786
Rp787
(dp788
g11
I00
sg19
I01
sg20
I00
sg624
g0
(g164
g2
Ntp789
Rp790
(dp791
g11
I00
sg19
I00
sg37
S'TracksHydjet_Drum'
p792
sg20
I00
sbsg374
g0
(g164
g2
Ntp793
Rp794
(dp795
g11
I00
sg19
I01
sg37
g632
sg20
I00
sbsg379
g0
(g164
g2
Ntp796
Rp797
(dp798
g11
I00
sg19
I01
sg37
S'CentralityTable_Tracks40_HydjetDrum_vv44x05_mc'
p799
sg20
I00
sbsg613
g0
(g164
g2
Ntp800
Rp801
(dp802
g11
I00
sg19
I00
sg37
g640
sg20
I00
sbsg38
(lp803
g374
ag379
ag613
ag624
asbag0
(g28
g2
Ntp804
Rp805
(dp806
g11
I00
sg19
I01
sg20
I00
sg624
g0
(g164
g2
Ntp807
Rp808
(dp809
g11
I00
sg19
I00
sg37
S'PixelTracksHydjet_Drum'
p810
sg20
I00
sbsg374
g0
(g164
g2
Ntp811
Rp812
(dp813
g11
I00
sg19
I01
sg37
g632
sg20
I00
sbsg379
g0
(g164
g2
Ntp814
Rp815
(dp816
g11
I00
sg19
I01
sg37
S'CentralityTable_PixelTracks40_HydjetDrum_vv44x05_mc'
p817
sg20
I00
sbsg613
g0
(g164
g2
Ntp818
Rp819
(dp820
g11
I00
sg19
I00
sg37
g640
sg20
I00
sbsg38
(lp821
g374
ag379
ag613
ag624
asbag0
(g28
g2
Ntp822
Rp823
(dp824
g11
I00
sg19
I01
sg20
I00
sg624
g0
(g164
g2
Ntp825
Rp826
(dp827
g11
I00
sg19
I00
sg37
S'HFtowersHydjet_Drum'
p828
sg20
I00
sbsg374
g0
(g164
g2
Ntp829
Rp830
(dp831
g11
I00
sg19
I01
sg37
g632
sg20
I00
sbsg379
g0
(g164
g2
Ntp832
Rp833
(dp834
g11
I00
sg19
I01
sg37
S'CentralityTable_HFtowers40_HydjetDrum_vv44x05_mc'
p835
sg20
I00
sbsg613
g0
(g164
g2
Ntp836
Rp837
(dp838
g11
I00
sg19
I00
sg37
g640
sg20
I00
sbsg38
(lp839
g374
ag379
ag613
ag624
asbag0
(g28
g2
Ntp840
Rp841
(dp842
g11
I00
sg19
I01
sg20
I00
sg624
g0
(g164
g2
Ntp843
Rp844
(dp845
g11
I00
sg19
I00
sg37
S'AK1PF_hiIterativeTracks'
p846
sg20
I00
sbsg374
g0
(g164
g2
Ntp847
Rp848
(dp849
g11
I00
sg19
I01
sg37
S'JetCorrectionsRecord'
p850
sg20
I00
sbsg379
g0
(g164
g2
Ntp851
Rp852
(dp853
g11
I00
sg19
I01
sg37
S'JetCorrectorParametersCollection_AK1PFTowers_hiIterativeTracks_HI_2760GeV_v3_offline'
p854
sg20
I00
sbsg613
g0
(g164
g2
Ntp855
Rp856
(dp857
g11
I00
sg19
I00
sg37
g640
sg20
I00
sbsg38
(lp858
g374
ag379
ag613
ag624
asbag0
(g28
g2
Ntp859
Rp860
(dp861
g11
I00
sg19
I01
sg20
I00
sg624
g0
(g164
g2
Ntp862
Rp863
(dp864
g11
I00
sg19
I00
sg37
S'AK2PF_hiIterativeTracks'
p865
sg20
I00
sbsg374
g0
(g164
g2
Ntp866
Rp867
(dp868
g11
I00
sg19
I01
sg37
g850
sg20
I00
sbsg379
g0
(g164
g2
Ntp869
Rp870
(dp871
g11
I00
sg19
I01
sg37
S'JetCorrectorParametersCollection_AK2PFTowers_hiIterativeTracks_HI_2760GeV_v3_offline'
p872
sg20
I00
sbsg613
g0
(g164
g2
Ntp873
Rp874
(dp875
g11
I00
sg19
I00
sg37
g640
sg20
I00
sbsg38
(lp876
g374
ag379
ag613
ag624
asbag0
(g28
g2
Ntp877
Rp878
(dp879
g11
I00
sg19
I01
sg20
I00
sg624
g0
(g164
g2
Ntp880
Rp881
(dp882
g11
I00
sg19
I00
sg37
S'AK3PF_hiIterativeTracks'
p883
sg20
I00
sbsg374
g0
(g164
g2
Ntp884
Rp885
(dp886
g11
I00
sg19
I01
sg37
g850
sg20
I00
sbsg379
g0
(g164
g2
Ntp887
Rp888
(dp889
g11
I00
sg19
I01
sg37
S'JetCorrectorParametersCollection_AK3PFTowers_hiIterativeTracks_HI_2760GeV_v3_offline'
p890
sg20
I00
sbsg613
g0
(g164
g2
Ntp891
Rp892
(dp893
g11
I00
sg19
I00
sg37
g640
sg20
I00
sbsg38
(lp894
g374
ag379
ag613
ag624
asbag0
(g28
g2
Ntp895
Rp896
(dp897
g11
I00
sg19
I01
sg20
I00
sg624
g0
(g164
g2
Ntp898
Rp899
(dp900
g11
I00
sg19
I00
sg37
S'AK4PF_hiIterativeTracks'
p901
sg20
I00
sbsg374
g0
(g164
g2
Ntp902
Rp903
(dp904
g11
I00
sg19
I01
sg37
g850
sg20
I00
sbsg379
g0
(g164
g2
Ntp905
Rp906
(dp907
g11
I00
sg19
I01
sg37
S'JetCorrectorParametersCollection_AK4PFTowers_hiIterativeTracks_HI_2760GeV_v3_offline'
p908
sg20
I00
sbsg613
g0
(g164
g2
Ntp909
Rp910
(dp911
g11
I00
sg19
I00
sg37
g640
sg20
I00
sbsg38
(lp912
g374
ag379
ag613
ag624
asbag0
(g28
g2
Ntp913
Rp914
(dp915
g11
I00
sg19
I01
sg20
I00
sg624
g0
(g164
g2
Ntp916
Rp917
(dp918
g11
I00
sg19
I00
sg37
S'AK5PF_hiIterativeTracks'
p919
sg20
I00
sbsg374
g0
(g164
g2
Ntp920
Rp921
(dp922
g11
I00
sg19
I01
sg37
g850
sg20
I00
sbsg379
g0
(g164
g2
Ntp923
Rp924
(dp925
g11
I00
sg19
I01
sg37
S'JetCorrectorParametersCollection_AK5PFTowers_hiIterativeTracks_HI_2760GeV_v3_offline'
p926
sg20
I00
sbsg613
g0
(g164
g2
Ntp927
Rp928
(dp929
g11
I00
sg19
I00
sg37
g640
sg20
I00
sbsg38
(lp930
g374
ag379
ag613
ag624
asbag0
(g28
g2
Ntp931
Rp932
(dp933
g11
I00
sg19
I01
sg20
I00
sg624
g0
(g164
g2
Ntp934
Rp935
(dp936
g11
I00
sg19
I00
sg37
S'AK6PF_hiIterativeTracks'
p937
sg20
I00
sbsg374
g0
(g164
g2
Ntp938
Rp939
(dp940
g11
I00
sg19
I01
sg37
g850
sg20
I00
sbsg379
g0
(g164
g2
Ntp941
Rp942
(dp943
g11
I00
sg19
I01
sg37
S'JetCorrectorParametersCollection_AK6PFTowers_hiIterativeTracks_HI_2760GeV_v3_offline'
p944
sg20
I00
sbsg613
g0
(g164
g2
Ntp945
Rp946
(dp947
g11
I00
sg19
I00
sg37
g640
sg20
I00
sbsg38
(lp948
g374
ag379
ag613
ag624
asbag0
(g28
g2
Ntp949
Rp950
(dp951
g11
I00
sg19
I01
sg20
I00
sg624
g0
(g164
g2
Ntp952
Rp953
(dp954
g11
I00
sg19
I00
sg37
S'AK1Calo_HI'
p955
sg20
I00
sbsg374
g0
(g164
g2
Ntp956
Rp957
(dp958
g11
I00
sg19
I01
sg37
g850
sg20
I00
sbsg379
g0
(g164
g2
Ntp959
Rp960
(dp961
g11
I00
sg19
I01
sg37
S'JetCorrectorParametersCollection_HI_PythiaZ2_5TeV_538_v03_AK1Calo_offline'
p962
sg20
I00
sbsg613
g0
(g164
g2
Ntp963
Rp964
(dp965
g11
I00
sg19
I00
sg37
g640
sg20
I00
sbsg38
(lp966
g374
ag379
ag613
ag624
asbag0
(g28
g2
Ntp967
Rp968
(dp969
g11
I00
sg19
I01
sg20
I00
sg624
g0
(g164
g2
Ntp970
Rp971
(dp972
g11
I00
sg19
I00
sg37
S'AK2Calo_HI'
p973
sg20
I00
sbsg374
g0
(g164
g2
Ntp974
Rp975
(dp976
g11
I00
sg19
I01
sg37
g850
sg20
I00
sbsg379
g0
(g164
g2
Ntp977
Rp978
(dp979
g11
I00
sg19
I01
sg37
S'JetCorrectorParametersCollection_HI_PythiaZ2_5TeV_538_v04_AK2Calo_offline'
p980
sg20
I00
sbsg613
g0
(g164
g2
Ntp981
Rp982
(dp983
g11
I00
sg19
I00
sg37
g640
sg20
I00
sbsg38
(lp984
g374
ag379
ag613
ag624
asbag0
(g28
g2
Ntp985
Rp986
(dp987
g11
I00
sg19
I01
sg20
I00
sg624
g0
(g164
g2
Ntp988
Rp989
(dp990
g11
I00
sg19
I00
sg37
S'AK3Calo_HI'
p991
sg20
I00
sbsg374
g0
(g164
g2
Ntp992
Rp993
(dp994
g11
I00
sg19
I01
sg37
g850
sg20
I00
sbsg379
g0
(g164
g2
Ntp995
Rp996
(dp997
g11
I00
sg19
I01
sg37
S'JetCorrectorParametersCollection_HI_PythiaZ2_5TeV_538_v05_AK3Calo_offline'
p998
sg20
I00
sbsg613
g0
(g164
g2
Ntp999
Rp1000
(dp1001
g11
I00
sg19
I00
sg37
g640
sg20
I00
sbsg38
(lp1002
g374
ag379
ag613
ag624
asbag0
(g28
g2
Ntp1003
Rp1004
(dp1005
g11
I00
sg19
I01
sg20
I00
sg624
g0
(g164
g2
Ntp1006
Rp1007
(dp1008
g11
I00
sg19
I00
sg37
S'AK4Calo_HI'
p1009
sg20
I00
sbsg374
g0
(g164
g2
Ntp1010
Rp1011
(dp1012
g11
I00
sg19
I01
sg37
g850
sg20
I00
sbsg379
g0
(g164
g2
Ntp1013
Rp1014
(dp1015
g11
I00
sg19
I01
sg37
S'JetCorrectorParametersCollection_HI_PythiaZ2_5TeV_538_v05_AK4Calo_offline'
p1016
sg20
I00
sbsg613
g0
(g164
g2
Ntp1017
Rp1018
(dp1019
g11
I00
sg19
I00
sg37
g640
sg20
I00
sbsg38
(lp1020
g374
ag379
ag613
ag624
asbag0
(g28
g2
Ntp1021
Rp1022
(dp1023
g11
I00
sg19
I01
sg20
I00
sg624
g0
(g164
g2
Ntp1024
Rp1025
(dp1026
g11
I00
sg19
I00
sg37
S'AK5Calo_HI'
p1027
sg20
I00
sbsg374
g0
(g164
g2
Ntp1028
Rp1029
(dp1030
g11
I00
sg19
I01
sg37
g850
sg20
I00
sbsg379
g0
(g164
g2
Ntp1031
Rp1032
(dp1033
g11
I00
sg19
I01
sg37
S'JetCorrectorParametersCollection_HI_PythiaZ2_5TeV_538_v05_AK5Calo_offline'
p1034
sg20
I00
sbsg613
g0
(g164
g2
Ntp1035
Rp1036
(dp1037
g11
I00
sg19
I00
sg37
g640
sg20
I00
sbsg38
(lp1038
g374
ag379
ag613
ag624
asbag0
(g28
g2
Ntp1039
Rp1040
(dp1041
g11
I00
sg19
I01
sg20
I00
sg624
g0
(g164
g2
Ntp1042
Rp1043
(dp1044
g11
I00
sg19
I00
sg37
S'AK6Calo_HI'
p1045
sg20
I00
sbsg374
g0
(g164
g2
Ntp1046
Rp1047
(dp1048
g11
I00
sg19
I01
sg37
g850
sg20
I00
sbsg379
g0
(g164
g2
Ntp1049
Rp1050
(dp1051
g11
I00
sg19
I01
sg37
S'JetCorrectorParametersCollection_HI_PythiaZ2_5TeV_538_v04_AK6Calo_offline'
p1052
sg20
I00
sbsg613
g0
(g164
g2
Ntp1053
Rp1054
(dp1055
g11
I00
sg19
I00
sg37
g640
sg20
I00
sbsg38
(lp1056
g374
ag379
ag613
ag624
asbag0
(g28
g2
Ntp1057
Rp1058
(dp1059
g11
I00
sg19
I01
sg20
I00
sg624
g0
(g164
g2
Ntp1060
Rp1061
(dp1062
g11
I00
sg19
I00
sg37
S'AK1PF_generalTracks'
p1063
sg20
I00
sbsg374
g0
(g164
g2
Ntp1064
Rp1065
(dp1066
g11
I00
sg19
I01
sg37
g850
sg20
I00
sbsg379
g0
(g164
g2
Ntp1067
Rp1068
(dp1069
g11
I00
sg19
I01
sg37
S'JetCorrectorParametersCollection_HI_PFTowers_generalTracks_PythiaZ2_5TeV_538_v02_AK2PF_offline'
p1070
sg20
I00
sbsg613
g0
(g164
g2
Ntp1071
Rp1072
(dp1073
g11
I00
sg19
I00
sg37
g640
sg20
I00
sbsg38
(lp1074
g374
ag379
ag613
ag624
asbag0
(g28
g2
Ntp1075
Rp1076
(dp1077
g11
I00
sg19
I01
sg20
I00
sg624
g0
(g164
g2
Ntp1078
Rp1079
(dp1080
g11
I00
sg19
I00
sg37
S'AK2PF_generalTracks'
p1081
sg20
I00
sbsg374
g0
(g164
g2
Ntp1082
Rp1083
(dp1084
g11
I00
sg19
I01
sg37
g850
sg20
I00
sbsg379
g0
(g164
g2
Ntp1085
Rp1086
(dp1087
g11
I00
sg19
I01
sg37
S'JetCorrectorParametersCollection_HI_PFTowers_generalTracks_PythiaZ2_5TeV_538_v04_AK2PF_offline'
p1088
sg20
I00
sbsg613
g0
(g164
g2
Ntp1089
Rp1090
(dp1091
g11
I00
sg19
I00
sg37
g640
sg20
I00
sbsg38
(lp1092
g374
ag379
ag613
ag624
asbag0
(g28
g2
Ntp1093
Rp1094
(dp1095
g11
I00
sg19
I01
sg20
I00
sg624
g0
(g164
g2
Ntp1096
Rp1097
(dp1098
g11
I00
sg19
I00
sg37
S'AK3PF_generalTracks'
p1099
sg20
I00
sbsg374
g0
(g164
g2
Ntp1100
Rp1101
(dp1102
g11
I00
sg19
I01
sg37
g850
sg20
I00
sbsg379
g0
(g164
g2
Ntp1103
Rp1104
(dp1105
g11
I00
sg19
I01
sg37
S'JetCorrectorParametersCollection_HI_PFTowers_generalTracks_PythiaZ2_5TeV_538_v05_AK3PF_offline'
p1106
sg20
I00
sbsg613
g0
(g164
g2
Ntp1107
Rp1108
(dp1109
g11
I00
sg19
I00
sg37
g640
sg20
I00
sbsg38
(lp1110
g374
ag379
ag613
ag624
asbag0
(g28
g2
Ntp1111
Rp1112
(dp1113
g11
I00
sg19
I01
sg20
I00
sg624
g0
(g164
g2
Ntp1114
Rp1115
(dp1116
g11
I00
sg19
I00
sg37
S'AK4PF_generalTracks'
p1117
sg20
I00
sbsg374
g0
(g164
g2
Ntp1118
Rp1119
(dp1120
g11
I00
sg19
I01
sg37
g850
sg20
I00
sbsg379
g0
(g164
g2
Ntp1121
Rp1122
(dp1123
g11
I00
sg19
I01
sg37
S'JetCorrectorParametersCollection_HI_PFTowers_generalTracks_PythiaZ2_5TeV_538_v05_AK4PF_offline'
p1124
sg20
I00
sbsg613
g0
(g164
g2
Ntp1125
Rp1126
(dp1127
g11
I00
sg19
I00
sg37
g640
sg20
I00
sbsg38
(lp1128
g374
ag379
ag613
ag624
asbag0
(g28
g2
Ntp1129
Rp1130
(dp1131
g11
I00
sg19
I01
sg20
I00
sg624
g0
(g164
g2
Ntp1132
Rp1133
(dp1134
g11
I00
sg19
I00
sg37
S'AK5PF_generalTracks'
p1135
sg20
I00
sbsg374
g0
(g164
g2
Ntp1136
Rp1137
(dp1138
g11
I00
sg19
I01
sg37
g850
sg20
I00
sbsg379
g0
(g164
g2
Ntp1139
Rp1140
(dp1141
g11
I00
sg19
I01
sg37
S'JetCorrectorParametersCollection_HI_PFTowers_generalTracks_PythiaZ2_5TeV_538_v05_AK5PF_offline'
p1142
sg20
I00
sbsg613
g0
(g164
g2
Ntp1143
Rp1144
(dp1145
g11
I00
sg19
I00
sg37
g640
sg20
I00
sbsg38
(lp1146
g374
ag379
ag613
ag624
asbag0
(g28
g2
Ntp1147
Rp1148
(dp1149
g11
I00
sg19
I01
sg20
I00
sg624
g0
(g164
g2
Ntp1150
Rp1151
(dp1152
g11
I00
sg19
I00
sg37
S'AK6PF_generalTracks'
p1153
sg20
I00
sbsg374
g0
(g164
g2
Ntp1154
Rp1155
(dp1156
g11
I00
sg19
I01
sg37
g850
sg20
I00
sbsg379
g0
(g164
g2
Ntp1157
Rp1158
(dp1159
g11
I00
sg19
I01
sg37
S'JetCorrectorParametersCollection_HI_PFTowers_generalTracks_PythiaZ2_5TeV_538_v04_AK6PF_offline'
p1160
sg20
I00
sbsg613
g0
(g164
g2
Ntp1161
Rp1162
(dp1163
g11
I00
sg19
I00
sg37
g640
sg20
I00
sbsg38
(lp1164
g374
ag379
ag613
ag624
asbag0
(g28
g2
Ntp1165
Rp1166
(dp1167
g11
I00
sg19
I01
sg20
I00
sg624
g0
(g164
g2
Ntp1168
Rp1169
(dp1170
g11
I00
sg19
I00
sg37
S'AK7PF_generalTracks'
p1171
sg20
I00
sbsg374
g0
(g164
g2
Ntp1172
Rp1173
(dp1174
g11
I00
sg19
I01
sg37
g850
sg20
I00
sbsg379
g0
(g164
g2
Ntp1175
Rp1176
(dp1177
g11
I00
sg19
I01
sg37
S'JetCorrectorParametersCollection_Fall12_V5_DATA_AK7PF'
p1178
sg20
I00
sbsg613
g0
(g164
g2
Ntp1179
Rp1180
(dp1181
g11
I00
sg19
I00
sg37
g640
sg20
I00
sbsg38
(lp1182
g374
ag379
ag613
ag624
asbag0
(g28
g2
Ntp1183
Rp1184
(dp1185
g11
I00
sg19
I01
sg20
I00
sg624
g0
(g164
g2
Ntp1186
Rp1187
(dp1188
g11
I00
sg19
I00
sg37
S'IC5Calo_2760GeV'
p1189
sg20
I00
sbsg374
g0
(g164
g2
Ntp1190
Rp1191
(dp1192
g11
I00
sg19
I01
sg37
g850
sg20
I00
sbsg379
g0
(g164
g2
Ntp1193
Rp1194
(dp1195
g11
I00
sg19
I01
sg37
S'JetCorrectorParametersCollection_IC5Calo_2760GeV_v0_offline'
p1196
sg20
I00
sbsg613
g0
(g164
g2
Ntp1197
Rp1198
(dp1199
g11
I00
sg19
I00
sg37
g640
sg20
I00
sbsg38
(lp1200
g374
ag379
ag613
ag624
asbag0
(g28
g2
Ntp1201
Rp1202
(dp1203
g11
I00
sg19
I01
sg20
I00
sg624
g0
(g164
g2
Ntp1204
Rp1205
(dp1206
g11
I00
sg19
I00
sg37
g549
sg20
I00
sbsg374
g0
(g164
g2
Ntp1207
Rp1208
(dp1209
g11
I00
sg19
I01
sg37
g632
sg20
I00
sbsg379
g0
(g164
g2
Ntp1210
Rp1211
(dp1212
g11
I00
sg19
I01
sg37
S'CentralityTable_HFplus100_PA2012B_v533x01_offline'
p1213
sg20
I00
sbsg613
g0
(g164
g2
Ntp1214
Rp1215
(dp1216
g11
I00
sg19
I00
sg37
g640
sg20
I00
sbsg38
(lp1217
g374
ag379
ag613
ag624
asbag0
(g28
g2
Ntp1218
Rp1219
(dp1220
g11
I00
sg19
I01
sg20
I00
sg624
g0
(g164
g2
Ntp1221
Rp1222
(dp1223
g11
I00
sg19
I00
sg37
S'TracksHijing'
p1224
sg20
I00
sbsg374
g0
(g164
g2
Ntp1225
Rp1226
(dp1227
g11
I00
sg19
I01
sg37
g632
sg20
I00
sbsg379
g0
(g164
g2
Ntp1228
Rp1229
(dp1230
g11
I00
sg19
I01
sg37
S'CentralityTable_Tracks100_HijingPA_v538x02_mc'
p1231
sg20
I00
sbsg613
g0
(g164
g2
Ntp1232
Rp1233
(dp1234
g11
I00
sg19
I00
sg37
g640
sg20
I00
sbsg38
(lp1235
g374
ag379
ag613
ag624
asbag0
(g28
g2
Ntp1236
Rp1237
(dp1238
g11
I00
sg19
I01
sg20
I00
sg624
g0
(g164
g2
Ntp1239
Rp1240
(dp1241
g11
I00
sg19
I00
sg37
S'HFtowersPlusTruncHijing'
p1242
sg20
I00
sbsg374
g0
(g164
g2
Ntp1243
Rp1244
(dp1245
g11
I00
sg19
I01
sg37
g632
sg20
I00
sbsg379
g0
(g164
g2
Ntp1246
Rp1247
(dp1248
g11
I00
sg19
I01
sg37
S'CentralityTable_HFplus100_HijingPA_v538x02_mc'
p1249
sg20
I00
sbsg613
g0
(g164
g2
Ntp1250
Rp1251
(dp1252
g11
I00
sg19
I00
sg37
g640
sg20
I00
sbsg38
(lp1253
g374
ag379
ag613
ag624
asbatp1254
Rp1255
(dp1256
g11
I00
sg19
I01
sg20
I00
sg21
I1
sbsg296
g0
(g28
g2
Ntp1257
Rp1258
(dp1259
g11
I00
sg19
I01
sg304
g0
(g164
g2
Ntp1260
Rp1261
(dp1262
g11
I00
sg19
I00
sg37
g276
sg20
I00
sbsg300
g0
(g103
g2
Ntp1263
Rp1264
(dp1265
g11
I00
sg19
I00
sg37
I10
sg20
I00
sbsg20
I00
sg308
g0
(g103
g2
Ntp1266
Rp1267
(dp1268
g11
I00
sg19
I00
sg37
I10
sg20
I00
sbsg312
g0
(g103
g2
Ntp1269
Rp1270
(dp1271
g11
I00
sg19
I00
sg37
I0
sg20
I00
sbsg316
g0
(g33
g2
Ntp1272
Rp1273
(dp1274
g11
I00
sg19
I00
sg37
I00
sg20
I00
sbsg320
g0
(g33
g2
Ntp1275
Rp1276
(dp1277
g11
I00
sg19
I00
sg37
I01
sg20
I00
sbsg324
g0
(g33
g2
Ntp1278
Rp1279
(dp1280
g11
I00
sg19
I00
sg37
I00
sg20
I00
sbsg38
(lp1281
g304
ag324
ag308
ag312
ag316
ag320
ag329
ag330
ag331
ag300
asg330
g0
(g103
g2
Ntp1282
Rp1283
(dp1284
g11
I00
sg19
I00
sg37
I60
sg20
I00
sbsg331
g0
(g103
g2
Ntp1285
Rp1286
(dp1287
g11
I00
sg19
I00
sg37
I0
sg20
I00
sbsg329
g0
(g103
g2
Ntp1288
Rp1289
(dp1290
g11
I00
sg19
I00
sg37
I60
sg20
I00
sbsbsg613
g0
(g164
g2
Ntp1291
Rp1292
(dp1293
g11
I00
sg19
I01
sg37
S'frontier://FrontierProd/CMS_COND_31X_GLOBALTAG'
p1294
sg20
I00
sbsg272
g607
sg612
g0
(g164
g2
Ntp1295
Rp1296
(dp1297
g11
I00
sg19
I00
sg37
S'TBufferBlobStreamingService'
p1298
sg20
I00
sbsg46
S'PoolDBESSource'
p1299
sbssg469
g460
sS'hionia'
p1300
g0
(cFWCore.ParameterSet.Modules
EDAnalyzer
p1301
g2
Ntp1302
Rp1303
(dp1304
g11
I00
sS'sglTriggerFilterNames'
p1305
g0
(g13
g14
(lp1306
S'hltL3fL2sMu3L3Filtered3'
p1307
aS'hltL3fL2sMu7L3Filtered7'
p1308
aS'hltL3fL2sMu12L3Filtered12'
p1309
atp1310
Rp1311
(dp1312
g11
I00
sg19
I01
sg20
I00
sg21
I1
sbsS'dataSetName'
p1313
g0
(g164
g2
Ntp1314
Rp1315
(dp1316
g11
I00
sg19
I01
sg37
S'Ups3S_DataSet.root'
p1317
sg20
I00
sbsS'fillRooDataSet'
p1318
g0
(g33
g2
Ntp1319
Rp1320
(dp1321
g11
I00
sg19
I01
sg37
I00
sg20
I00
sbsS'centralityRanges'
p1322
g0
(cFWCore.ParameterSet.Types
vdouble
p1323
g14
(lp1324
I20
aI40
aI100
atp1325
Rp1326
(dp1327
g11
I00
sg19
I01
sg20
I00
sbsS'oniaPDG'
p1328
g0
(g103
g2
Ntp1329
Rp1330
(dp1331
g11
I00
sg19
I01
sg37
I200553
sg20
I00
sbsS'srcTracks'
p1332
g0
(g281
g2
Ntp1333
Rp1334
(dp1335
g11
I00
sg19
I01
sg20
I00
sg285
S'generalTracks'
p1336
sg287
g276
sg289
g276
sbsS'applyCuts'
p1337
g0
(g33
g2
Ntp1338
Rp1339
(dp1340
g11
I00
sg19
I01
sg37
I01
sg20
I00
sbsS'etaBinRanges'
p1341
g0
(g1323
g14
(lp1342
F0.0
aF2.5
atp1343
Rp1344
(dp1345
g11
I00
sg19
I01
sg20
I00
sbsS'minimumFlag'
p1346
g0
(g33
g2
Ntp1347
Rp1348
(dp1349
g11
I00
sg19
I01
sg37
I00
sg20
I00
sbsS'triggerResultsLabel'
p1350
g0
(g281
g2
Ntp1351
Rp1352
(dp1353
g11
I00
sg19
I01
sg20
I00
sg285
g286
sg287
g288
sg289
g276
sbsS'isPA'
p1354
g0
(g33
g2
Ntp1355
Rp1356
(dp1357
g11
I00
sg19
I00
sg37
I01
sg20
I00
sbsg46
S'HiOniaAnalyzer'
p1358
sg38
(lp1359
S'fillRecoTracks'
p1360
ag1305
ag1313
ag1322
aS'histFileName'
p1361
ag1332
ag1337
ag1341
ag1346
aS'fillTree'
p1362
ag1354
aS'srcMuon'
p1363
ag1350
aS'removeSignalEvents'
p1364
aS'sglTriggerPathNames'
p1365
aS'useRapidity'
p1366
aS'srcMuonNoTrig'
p1367
aS'srcCentrality'
p1368
aS'maxAbsZ'
p1369
aS'dblTriggerPathNames'
p1370
aS'storeEfficiency'
p1371
aS'isHI'
p1372
aS'combineCategories'
p1373
aS'storeSameSign'
p1374
aS'primaryVertexTag'
p1375
aS'dblTriggerFilterNames'
p1376
aS'fillHistos'
p1377
ag1328
ag1318
aS'genParticles'
p1378
aS'pTBinRanges'
p1379
aS'fillSingleMuons'
p1380
aS'src'
p1381
aS'isPromptMC'
p1382
aS'useBeamSpot'
p1383
aS'removeTrueMuons'
p1384
aS'isMC'
p1385
aS'muonLessPV'
p1386
aS'onlyTheBest'
p1387
asg1366
g0
(g33
g2
Ntp1388
Rp1389
(dp1390
g11
I00
sg19
I01
sg37
I01
sg20
I00
sbsg1362
g0
(g33
g2
Ntp1391
Rp1392
(dp1393
g11
I00
sg19
I01
sg37
I01
sg20
I00
sbsg1364
g0
(g33
g2
Ntp1394
Rp1395
(dp1396
g11
I00
sg19
I00
sg37
I00
sg20
I00
sbsg69
g271
sg1365
g0
(g13
g14
(lp1397
S'HLT_PAMu3_v1'
p1398
aS'HLT_PAMu7_v1'
p1399
aS'HLT_PAMu12_v1'
p1400
atp1401
Rp1402
(dp1403
g11
I00
sg19
I01
sg20
I00
sg21
I1
sbsg1363
g0
(g281
g2
Ntp1404
Rp1405
(dp1406
g11
I00
sg19
I01
sg20
I00
sg285
S'patMuonsWithTrigger'
p1407
sg287
g276
sg289
g276
sbsg1380
g0
(g33
g2
Ntp1408
Rp1409
(dp1410
g11
I00
sg19
I01
sg37
I01
sg20
I00
sbsg1360
g0
(g33
g2
Ntp1411
Rp1412
(dp1413
g11
I00
sg19
I01
sg37
I01
sg20
I00
sbsg1369
g0
(g359
g2
Ntp1414
Rp1415
(dp1416
g11
I00
sg19
I01
sg37
F24.0
sg20
I00
sbsg1370
g0
(g13
g14
(lp1417
S'HLT_PAL1DoubleMuOpen_v1'
p1418
aS'HLT_PAL1DoubleMu0_HighQ_v1'
p1419
aS'HLT_PAL2DoubleMu3_v1'
p1420
aS'HLT_PAPixelTrackMultiplicity100_L2DoubleMu3_v1'
p1421
atp1422
Rp1423
(dp1424
g11
I00
sg19
I01
sg20
I00
sg21
I1
sbsg1371
g0
(g33
g2
Ntp1425
Rp1426
(dp1427
g11
I00
sg19
I01
sg37
I00
sg20
I00
sbsg1372
g0
(g33
g2
Ntp1428
Rp1429
(dp1430
g11
I00
sg19
I00
sg37
I00
sg20
I00
sbsg1373
g0
(g33
g2
Ntp1431
Rp1432
(dp1433
g11
I00
sg19
I01
sg37
I00
sg20
I00
sbsg1374
g0
(g33
g2
Ntp1434
Rp1435
(dp1436
g11
I00
sg19
I00
sg37
I01
sg20
I00
sbsg1375
g0
(g281
g2
Ntp1437
Rp1438
(dp1439
g11
I00
sg19
I01
sg20
I00
sg285
S'offlinePrimaryVertices'
p1440
sg287
g276
sg289
g276
sbsg1376
g0
(g13
g14
(lp1441
S'hltL1fL1sPAL1DoubleMuOpenL1Filtered0'
p1442
aS'hltL1fL1sPAL1DoubleMu0HighQL1FilteredHighQ'
p1443
aS'hltL2fL1sPAL2DoubleMu3L2Filtered3'
p1444
ag1444
atp1445
Rp1446
(dp1447
g11
I00
sg19
I01
sg20
I00
sg21
I1
sbsg1377
g0
(g33
g2
Ntp1448
Rp1449
(dp1450
g11
I00
sg19
I01
sg37
I00
sg20
I00
sbsg272
g1300
sg1361
g0
(g164
g2
Ntp1451
Rp1452
(dp1453
g11
I00
sg19
I01
sg37
S'Upsilon3S_tuneD6T_5TeV02.root'
p1454
sg20
I00
sbsg1367
g0
(g281
g2
Ntp1455
Rp1456
(dp1457
g11
I00
sg19
I01
sg20
I00
sg285
S'patMuonsWithoutTrigger'
p1458
sg287
g276
sg289
g276
sbsg1378
g0
(g281
g2
Ntp1459
Rp1460
(dp1461
g11
I00
sg19
I01
sg20
I00
sg285
g1378
sg287
g276
sg289
g276
sbsg1379
g0
(g1323
g14
(lp1462
F0.0
aF6.0
aF8.0
aF9.0
aF10.0
aF12.0
aF15.0
aF40.0
atp1463
Rp1464
(dp1465
g11
I00
sg19
I01
sg20
I00
sbsg1368
g0
(g281
g2
Ntp1466
Rp1467
(dp1468
g11
I00
sg19
I01
sg20
I00
sg285
g561
sg287
g276
sg289
g276
sbsg1381
g0
(g281
g2
Ntp1469
Rp1470
(dp1471
g11
I00
sg19
I01
sg20
I00
sg285
S'onia2MuMuPatTrkTrk'
p1472
sg287
g276
sg289
g276
sbsg20
I00
sg1382
g0
(g33
g2
Ntp1473
Rp1474
(dp1475
g11
I00
sg19
I00
sg37
I01
sg20
I00
sbsg1383
g0
(g33
g2
Ntp1476
Rp1477
(dp1478
g11
I00
sg19
I01
sg37
I00
sg20
I00
sbsg1384
g0
(g33
g2
Ntp1479
Rp1480
(dp1481
g11
I00
sg19
I00
sg37
I00
sg20
I00
sbsg40
I172
sg1385
g0
(g33
g2
Ntp1482
Rp1483
(dp1484
g11
I00
sg19
I00
sg37
I01
sg20
I00
sbsg1386
g0
(g33
g2
Ntp1485
Rp1486
(dp1487
g11
I00
sg19
I01
sg37
I01
sg20
I00
sbsg1387
g0
(g33
g2
Ntp1488
Rp1489
(dp1490
g11
I00
sg19
I01
sg37
I00
sg20
I00
sbsbsg532
g534
sS'source'
p1491
g460
sS'CastorDbProducer'
p1492
g0
(g345
g2
Ntp1493
Rp1494
(dp1495
g38
(lp1496
sg11
I00
sg20
I00
sg40
I40
sg69
g70
sg272
g1492
sg46
g1492
sbsS'_Process__vpsets'
p1497
(dp1498
sS'_Process__name'
p1499
S'HIOnia'
p1500
sS'hltMu12'
p1501
g0
(g253
g2
Ntp1502
Rp1503
(dp1504
g38
(lp1505
g258
ag259
ag260
ag261
ag262
asg11
I00
sg262
g0
(g33
g2
Ntp1506
Rp1507
(dp1508
g11
I00
sg19
I01
sg37
I01
sg20
I00
sbsg260
g0
(g13
g14
(lp1509
S'HLT_PAMu12_v*'
p1510
atp1511
Rp1512
(dp1513
g11
I00
sg19
I01
sg20
I00
sg21
I1
sbsg20
I00
sg40
I96
sg69
g271
sg272
g1501
sg258
g0
(g164
g2
Ntp1514
Rp1515
(dp1516
g11
I00
sg19
I01
sg37
g276
sg20
I00
sbsg261
g0
(g33
g2
Ntp1517
Rp1518
(dp1519
g11
I00
sg19
I01
sg37
I00
sg20
I00
sbsg46
g280
sg259
g0
(g281
g2
Ntp1520
Rp1521
(dp1522
g11
I00
sg19
I01
sg20
I00
sg285
g286
sg287
g288
sg289
g276
sbsbsS'hltDblMu0'
p1523
g0
(g253
g2
Ntp1524
Rp1525
(dp1526
g38
(lp1527
g258
ag259
ag260
ag261
ag262
asg11
I00
sg262
g0
(g33
g2
Ntp1528
Rp1529
(dp1530
g11
I00
sg19
I01
sg37
I01
sg20
I00
sbsg260
g0
(g13
g14
(lp1531
S'HLT_PAL1DoubleMu0_HighQ_v*'
p1532
atp1533
Rp1534
(dp1535
g11
I00
sg19
I01
sg20
I00
sg21
I1
sbsg20
I00
sg40
I64
sg69
g271
sg272
g1523
sg258
g0
(g164
g2
Ntp1536
Rp1537
(dp1538
g11
I00
sg19
I01
sg37
g276
sg20
I00
sbsg261
g0
(g33
g2
Ntp1539
Rp1540
(dp1541
g11
I00
sg19
I01
sg37
I00
sg20
I00
sbsg46
g280
sg259
g0
(g281
g2
Ntp1542
Rp1543
(dp1544
g11
I00
sg19
I01
sg20
I00
sg285
g286
sg287
g288
sg289
g276
sbsbsS'hltDblMu3'
p1545
g0
(g253
g2
Ntp1546
Rp1547
(dp1548
g38
(lp1549
g258
ag259
ag260
ag261
ag262
asg11
I00
sg262
g0
(g33
g2
Ntp1550
Rp1551
(dp1552
g11
I00
sg19
I01
sg37
I01
sg20
I00
sbsg260
g0
(g13
g14
(lp1553
S'HLT_PAL2DoubleMu3_v*'
p1554
atp1555
Rp1556
(dp1557
g11
I00
sg19
I01
sg20
I00
sg21
I1
sbsg20
I00
sg40
I72
sg69
g271
sg272
g1545
sg258
g0
(g164
g2
Ntp1558
Rp1559
(dp1560
g11
I00
sg19
I01
sg37
g276
sg20
I00
sbsg261
g0
(g33
g2
Ntp1561
Rp1562
(dp1563
g11
I00
sg19
I01
sg37
I00
sg20
I00
sbsg46
g280
sg259
g0
(g281
g2
Ntp1564
Rp1565
(dp1566
g11
I00
sg19
I01
sg20
I00
sg285
g286
sg287
g288
sg289
g276
sbsbsg593
g596
sS'_cloneToObjectDict'
p1567
(dp1568
I29468432
g543
sI30196752
g472
sI30196944
g0
(g345
g2
Ntp1569
Rp1570
(dp1571
g38
(lp1572
g475
aS'NSigmaInside'
p1573
asg11
I00
sg20
I00
sg69
g70
sg475
g0
(g164
g2
Ntp1574
Rp1575
(dp1576
g11
I00
sg19
I01
sg37
S'StandardMatcher'
p1577
sg20
I00
sbsg40
I40
sg1573
g0
(g359
g2
Ntp1578
Rp1579
(dp1580
g11
I00
sg19
I01
sg37
F3.0
sg20
I00
sbsg272
S'SiStripRecHitMatcherESProducer'
p1581
sg46
g1581
sbsI30179600
g294
sI30180752
g578
sI30180880
g527
sI30181008
g596
sI30197520
g1494
sI29468624
g534
sI29468752
g0
(g28
g2
Ntp1582
Rp1583
(dp1584
g11
I00
sg19
I00
sg20
I00
sS'wantSummary'
p1585
g0
(g33
g2
Ntp1586
Rp1587
(dp1588
g11
I00
sg19
I00
sg37
I01
sg20
I00
sbsg38
(lp1589
g1585
asg272
NsbsI29468880
g567
sI29469264
g0
(g253
g2
Ntp1590
Rp1591
(dp1592
g38
(lp1593
g258
ag259
ag260
ag261
ag262
asg11
I00
sg262
g0
(g33
g2
Ntp1594
Rp1595
(dp1596
g11
I00
sg19
I01
sg37
I01
sg20
I00
sbsg260
g0
(g13
g14
(lp1597
S'HLT_PAL1DoubleMuOpen_v*'
p1598
atp1599
Rp1600
(dp1601
g11
I00
sg19
I01
sg20
I00
sg21
I1
sbsg20
I00
sg40
I56
sg69
g271
sg272
S'hltDblMuOpen'
p1602
sg258
g0
(g164
g2
Ntp1603
Rp1604
(dp1605
g11
I00
sg19
I01
sg37
g276
sg20
I00
sbsg261
g0
(g33
g2
Ntp1606
Rp1607
(dp1608
g11
I00
sg19
I01
sg37
I00
sg20
I00
sbsg46
g280
sg259
g0
(g281
g2
Ntp1609
Rp1610
(dp1611
g11
I00
sg19
I01
sg20
I00
sg285
g286
sg287
g288
sg289
g276
sbsbsI29518544
g1303
sI29518608
g0
(cFWCore.ParameterSet.SequenceTypes
Path
p1612
g2
Ntp1613
Rp1614
(dp1615
g11
I00
sS'_seq'
p1616
g0
(cFWCore.ParameterSet.SequenceTypes
_SequenceCollection
p1617
g2
Ntp1618
Rp1619
(dp1620
S'_collection'
p1621
(lp1622
g1303
asbsg20
I00
sg272
S'p'
p1623
sbsI29469648
g1525
sI30198864
g347
sI29469968
g1547
sI30197072
g0
(g345
g2
Ntp1624
Rp1625
(dp1626
g38
(lp1627
sg11
I00
sg20
I00
sg40
I40
sg69
g70
sg272
S'sistripconn'
p1628
sg46
S'SiStripConnectivity'
p1629
sbsI29470288
g255
sI30183120
g0
(g345
g2
Ntp1630
Rp1631
(dp1632
g38
(lp1633
S'printDebug'
p1634
ag350
aS'APVGain'
p1635
aS'AutomaticNormalization'
p1636
asg11
I00
sg350
g0
(g164
g2
Ntp1637
Rp1638
(dp1639
g11
I00
sg19
I01
sg37
g276
sg20
I00
sbsg20
I00
sg1636
g0
(g33
g2
Ntp1640
Rp1641
(dp1642
g11
I00
sg19
I01
sg37
I00
sg20
I00
sbsg40
I40
sg1634
g0
(g33
g2
Ntp1643
Rp1644
(dp1645
g11
I00
sg19
I00
sg37
I00
sg20
I00
sbsg69
g70
sg1635
g0
(g369
g14
(lp1646
g0
(g28
g2
Ntp1647
Rp1648
(dp1649
g11
I00
sg19
I01
sg20
I00
sS'Label'
p1650
g0
(g164
g2
Ntp1651
Rp1652
(dp1653
g11
I00
sg19
I00
sg37
g276
sg20
I00
sbsS'Record'
p1654
g0
(g164
g2
Ntp1655
Rp1656
(dp1657
g11
I00
sg19
I01
sg37
S'SiStripApvGainRcd'
p1658
sg20
I00
sbsS'NormalizationFactor'
p1659
g0
(g359
g2
Ntp1660
Rp1661
(dp1662
g11
I00
sg19
I00
sg37
F1.0
sg20
I00
sbsg38
(lp1663
g1654
ag1659
ag1650
asbag0
(g28
g2
Ntp1664
Rp1665
(dp1666
g11
I00
sg19
I01
sg20
I00
sg1650
g0
(g164
g2
Ntp1667
Rp1668
(dp1669
g11
I00
sg19
I00
sg37
g276
sg20
I00
sbsg1654
g0
(g164
g2
Ntp1670
Rp1671
(dp1672
g11
I00
sg19
I01
sg37
S'SiStripApvGain2Rcd'
p1673
sg20
I00
sbsg1659
g0
(g359
g2
Ntp1674
Rp1675
(dp1676
g11
I00
sg19
I00
sg37
F1.0
sg20
I00
sbsg38
(lp1677
g1654
ag1659
ag1650
asbatp1678
Rp1679
(dp1680
g11
I00
sg19
I01
sg20
I00
sg21
I1
sbsg272
S'siStripGainESProducer'
p1681
sg46
S'SiStripGainESProducer'
p1682
sbsI30197648
g0
(g345
g2
Ntp1683
Rp1684
(dp1685
g38
(lp1686
g355
asg11
I00
sg20
I01
sg40
I40
sg69
g70
sg355
g0
(g369
g14
(lp1687
g0
(g28
g2
Ntp1688
Rp1689
(dp1690
g11
I00
sg19
I01
sg20
I00
sg374
g0
(g164
g2
Ntp1691
Rp1692
(dp1693
g11
I00
sg19
I01
sg37
S'SiPixelQualityFromDbRcd'
p1694
sg20
I00
sbsg379
g0
(g164
g2
Ntp1695
Rp1696
(dp1697
g11
I00
sg19
I01
sg37
g276
sg20
I00
sbsg38
(lp1698
g374
ag379
asbag0
(g28
g2
Ntp1699
Rp1700
(dp1701
g11
I00
sg19
I01
sg20
I00
sg374
g0
(g164
g2
Ntp1702
Rp1703
(dp1704
g11
I00
sg19
I01
sg37
S'SiPixelDetVOffRcd'
p1705
sg20
I00
sbsg379
g0
(g164
g2
Ntp1706
Rp1707
(dp1708
g11
I00
sg19
I01
sg37
g276
sg20
I00
sbsg38
(lp1709
g374
ag379
asbatp1710
Rp1711
(dp1712
g11
I00
sg19
I01
sg20
I00
sg21
I1
sbsg272
S'siPixelQualityESProducer'
p1713
sg46
S'SiPixelQualityESProducer'
p1714
sbsI29470608
g505
sI29516048
g1503
sI30179728
g609
sI29516368
g483
sI30196432
g0
(g345
g2
Ntp1715
Rp1716
(dp1717
g38
(lp1718
S'LatencyRecord'
p1719
aS'LorentzAngleDeconvMode'
p1720
aS'LorentzAnglePeakMode'
p1721
asg11
I00
sg20
I00
sg40
I40
sg69
g70
sg1719
g0
(g28
g2
Ntp1722
Rp1723
(dp1724
g11
I00
sg19
I01
sg20
I00
sg624
g0
(g164
g2
Ntp1725
Rp1726
(dp1727
g11
I00
sg19
I00
sg37
g276
sg20
I00
sbsg374
g0
(g164
g2
Ntp1728
Rp1729
(dp1730
g11
I00
sg19
I01
sg37
S'SiStripLatencyRcd'
p1731
sg20
I00
sbsg38
(lp1732
g374
ag624
asbsg272
S'siStripLorentzAngleDepESProducer'
p1733
sg1721
g0
(g28
g2
Ntp1734
Rp1735
(dp1736
g11
I00
sg19
I01
sg20
I00
sg624
g0
(g164
g2
Ntp1737
Rp1738
(dp1739
g11
I00
sg19
I00
sg37
S'peak'
p1740
sg20
I00
sbsg374
g0
(g164
g2
Ntp1741
Rp1742
(dp1743
g11
I00
sg19
I01
sg37
S'SiStripLorentzAngleRcd'
p1744
sg20
I00
sbsg38
(lp1745
g374
ag624
asbsg46
S'SiStripLorentzAngleDepESProducer'
p1746
sg1720
g0
(g28
g2
Ntp1747
Rp1748
(dp1749
g11
I00
sg19
I01
sg20
I00
sg624
g0
(g164
g2
Ntp1750
Rp1751
(dp1752
g11
I00
sg19
I00
sg37
S'deconvolution'
p1753
sg20
I00
sbsg374
g0
(g164
g2
Ntp1754
Rp1755
(dp1756
g11
I00
sg19
I01
sg37
g1744
sg20
I00
sbsg38
(lp1757
g374
ag624
asbsbssg1681
g1631
sg1628
g1625
sS'_Process__esprefers'
p1758
(dp1759
sg1581
g1570
sS'_Process__isStrict'
p1760
I00
sS'_Process__partialschedules'
p1761
(dp1762
sS'_Process__outputmodules'
p1763
(dp1764
sS'_Process__analyzers'
p1765
(dp1766
g1300
g1303
ssS'_Process__InExtendCall'
p1767
I00
sg1733
g1716
sS'_Process__producers'
p1768
(dp1769
sg541
g543
sg1713
g1684
sg607
g609
sS'_Process__filters'
p1770
(dp1771
g252
g255
sg503
g505
sg1602
g1591
sg481
g483
sg1501
g1503
sg1523
g1525
sg1545
g1547
ssS'_Process__looper'
p1772
NsS'_Process__endpaths'
p1773
g0
(cFWCore.ParameterSet.DictTypes
SortedKeysDict
p1774
c__builtin__
dict
p1775
(dp1776
tp1777
Rp1778
(dp1779
S'list'
p1780
(lp1781
sbsS'_Process__esproducers'
p1782
(dp1783
g1733
g1716
sg1581
g1570
sg1713
g1684
sg576
g578
sg1681
g1631
sg1628
g1625
sg470
g472
sg1492
g1494
sg525
g527
sg344
g347
ssg1623
g1614
sS'_Process__paths'
p1784
g0
(g1774
g1775
(dp1785
g1623
g1614
stp1786
Rp1787
(dp1788
g1780
(lp1789
g1623
asbsg1602
g1591
sS'_Process__subProcess'
p1790
Nsg565
g567
sS'_Process__schedule'
p1791
Nsb.