(dp1
S'OriginalConfig'
p2
ccopy_reg
_reconstructor
p3
(cWMCore.Configuration
Configuration
p4
c__builtin__
object
p5
NtRp6
(dp7
S'Site'
p8
g3
(cWMCore.Configuration
ConfigSection
p9
g5
NtRp10
(dp11
S'_internal_skipChecks'
p12
I00
sS'_internal_documentation'
p13
S''
sS'_internal_settings'
p14
c__builtin__
set
p15
((lp16
S'storageSite'
p17
atRp18
sS'_internal_name'
p19
g8
sS'_internal_docstrings'
p20
(dp21
sS'_internal_children'
p22
g15
((ltRp23
sg17
S'T2_CH_CERN'
p24
sS'_internal_parent_ref'
p25
NsbsS'_internal_sections'
p26
(lp27
S'General'
p28
aS'JobType'
p29
aS'Data'
p30
ag8
aS'User'
p31
aS'Debug'
p32
asg28
g3
(g9
g5
NtRp33
(dp34
S'transferLogs'
p35
I01
sg12
I00
sg13
S''
sg14
g15
((lp36
g35
aS'transferOutputs'
p37
aS'workArea'
p38
aS'requestName'
p39
atRp40
sg19
g28
sg20
(dp41
sg37
I01
sg22
g15
((ltRp42
sg39
S'Analyzer_Ups3S_tuneD6T_5TeV02'
p43
sg25
Nsg38
S'crab_projects'
p44
sbsS'_internal_webapps'
p45
(lp46
sg31
g3
(g9
g5
NtRp47
(dp48
g12
I00
sg13
S''
sg14
g15
((ltRp49
sg19
g31
sg20
(dp50
sg22
g15
((ltRp51
sg25
NsbsS'_internal_components'
p52
(lp53
sg32
g3
(g9
g5
NtRp54
(dp55
g12
I00
sg13
S''
sg14
g15
((ltRp56
sg19
g32
sg20
(dp57
sg22
g15
((ltRp58
sg25
Nsbsg30
g3
(g9
g5
NtRp59
(dp60
S'inputDataset'
p61
S'/PYTHIA6_Upsilon3S_tuneD6T_5TeV02/stuli-Ups3S_tuneD6T_5TeV02-c33dc9ac7d7d0e1f5eed45ebf52f99b5/USER'
p62
sg12
I00
sS'splitting'
p63
S'FileBased'
p64
sS'unitsPerJob'
p65
I1
sg13
S''
sg14
g15
((lp66
g61
aS'publication'
p67
ag65
aS'inputDBS'
p68
ag63
aS'outLFNDirBase'
p69
atRp70
sg19
g30
sg68
S'phys03'
p71
sg20
(dp72
sg22
g15
((ltRp73
sg69
S'/store/group/phys_heavyions/stuli/MCpPb5TeV02'
p74
sg25
Nsg67
I00
sbsg29
g3
(g9
g5
NtRp75
(dp76
S'outputFiles'
p77
(lp78
S'Upsilon3S_tuneD6T_5TeV02.root'
p79
asg12
I00
sg13
S''
sg14
g15
((lp80
S'psetName'
p81
aS'pluginName'
p82
ag77
atRp83
sg19
g29
sg20
(dp84
sg82
S'Analysis'
p85
sg22
g15
((ltRp86
sg81
S'hioniaanalyzer3S_cfg.py'
p87
sg25
NsbsbsS'voGroup'
p88
S''
sS'Server'
p89
S'cmsweb.cern.ch'
p90
sS'instance'
p91
S'prod'
p92
sS'RequestName'
p93
V170816_000525:stuli_crab_Analyzer_Ups3S_tuneD6T_5TeV02
p94
sS'voRole'
p95
S'NULL'
p96
sS'Port'
p97
S''
s.